target datalayout = "e-m:e-p270:32:32-p271:32:32-p272:64:64-i64:64-i128:128-f80:128-n8:16:32:64-S128"
target triple = "x86_64-pc-linux-gnu"

; Function Attrs: nounwind uwtable
define internal i32 @utf8_isName2(ptr noundef %0, ptr noundef %1) #0 {
  %3 = alloca ptr, align 8
  %4 = alloca ptr, align 8
  store ptr %0, ptr %3, align 8, !tbaa !45
  store ptr %1, ptr %4, align 8, !tbaa !4
  %5 = load ptr, ptr %4, align 8, !tbaa !4
  %6 = getelementptr inbounds i8, ptr %5, i64 0
  %7 = load i8, ptr %6, align 1, !tbaa !13
  %8 = zext i8 %7 to i32
  %9 = ashr i32 %8, 2
  %10 = and i32 %9, 7
  %11 = sext i32 %10 to i64
  %12 = getelementptr inbounds [256 x i8], ptr @namePages, i64 0, i64 %11
  %13 = load i8, ptr %12, align 1, !tbaa !13
  %14 = zext i8 %13 to i32
  %15 = shl i32 %14, 3
  %16 = load ptr, ptr %4, align 8, !tbaa !4
  %17 = getelementptr inbounds i8, ptr %16, i64 0
  %18 = load i8, ptr %17, align 1, !tbaa !13
  %19 = zext i8 %18 to i32
  %20 = and i32 %19, 3
  %21 = shl i32 %20, 1
  %22 = add nsw i32 %15, %21
  %23 = load ptr, ptr %4, align 8, !tbaa !4
  %24 = getelementptr inbounds i8, ptr %23, i64 1
  %25 = load i8, ptr %24, align 1, !tbaa !13
  %26 = zext i8 %25 to i32
  %27 = ashr i32 %26, 5
  %28 = and i32 %27, 1
  %29 = add nsw i32 %22, %28
  %30 = sext i32 %29 to i64
  %31 = getelementptr inbounds [320 x i32], ptr @namingBitmap, i64 0, i64 %30
  %32 = load i32, ptr %31, align 4, !tbaa !16
  %33 = load ptr, ptr %4, align 8, !tbaa !4
  %34 = getelementptr inbounds i8, ptr %33, i64 1
  %35 = load i8, ptr %34, align 1, !tbaa !13
  %36 = zext i8 %35 to i32
  %37 = and i32 %36, 31
  %38 = shl i32 1, %37
  %39 = and i32 %32, %38
  ret i32 %39
}