; Function Attrs: mustprogress nofree norecurse nosync nounwind willreturn memory(argmem: read) uwtable
define internal range(i32 0, -2147483647) i32 @utf8_isName2(ptr readnone captures(none) %0, ptr noundef readonly captures(none) %1) #8 {
  %3 = load i8, ptr %1, align 1, !tbaa !9
  %4 = zext i8 %3 to i32
  %5 = lshr i32 %4, 2
  %6 = and i32 %5, 7
  %7 = zext nneg i32 %6 to i64
  %8 = getelementptr inbounds nuw [256 x i8], ptr @namePages, i64 0, i64 %7
  %9 = load i8, ptr %8, align 1, !tbaa !9
  %10 = zext i8 %9 to i32
  %11 = shl nuw nsw i32 %10, 3
  %12 = shl nuw nsw i32 %4, 1
  %13 = and i32 %12, 6
  %14 = or disjoint i32 %11, %13
  %15 = getelementptr inbounds nuw i8, ptr %1, i64 1
  %16 = load i8, ptr %15, align 1, !tbaa !9
  %17 = zext i8 %16 to i32
  %18 = lshr i32 %17, 5
  %19 = and i32 %18, 1
  %20 = or disjoint i32 %19, %14
  %21 = zext nneg i32 %20 to i64
  %22 = getelementptr inbounds nuw [320 x i32], ptr @namingBitmap, i64 0, i64 %21
  %23 = load i32, ptr %22, align 4, !tbaa !14
  %24 = and i32 %17, 31
  %25 = shl nuw i32 1, %24
  %26 = and i32 %25, %23
  ret i32 %26
}